target datalayout = "e-m:e-p270:32:32-p271:32:32-p272:64:64-i64:64-i128:128-f80:128-n8:16:32:64-S128"
target triple = "x86_64-pc-linux-gnu"

%struct.antecedentConsequentVectorsStruct = type { ptr, ptr }
%struct.Vec_Int_t_ = type { i32, i32, ptr }

; Function Attrs: inlinehint nounwind uwtable
define internal void @Vec_IntFree(ptr noundef %0) #3 {
  %2 = alloca ptr, align 8
  store ptr %0, ptr %2, align 8, !tbaa !12
  %3 = load ptr, ptr %2, align 8, !tbaa !12
  %4 = getelementptr inbounds nuw %struct.Vec_Int_t_, ptr %3, i32 0, i32 2
  %5 = load ptr, ptr %4, align 8, !tbaa !13
  %6 = icmp ne ptr %5, null
  br i1 %6, label %7, label %13

7:                                                ; preds = %1
  %8 = load ptr, ptr %2, align 8, !tbaa !12
  %9 = getelementptr inbounds nuw %struct.Vec_Int_t_, ptr %8, i32 0, i32 2
  %10 = load ptr, ptr %9, align 8, !tbaa !13
  call void @free(ptr noundef %10) #9
  %11 = load ptr, ptr %2, align 8, !tbaa !12
  %12 = getelementptr inbounds nuw %struct.Vec_Int_t_, ptr %11, i32 0, i32 2
  store ptr null, ptr %12, align 8, !tbaa !13
  br label %14

13:                                               ; preds = %1
  br label %14

14:                                               ; preds = %13, %7
  %15 = load ptr, ptr %2, align 8, !tbaa !12
  %16 = icmp ne ptr %15, null
  br i1 %16, label %17, label %19

17:                                               ; preds = %14
  %18 = load ptr, ptr %2, align 8, !tbaa !12
  call void @free(ptr noundef %18) #9
  store ptr null, ptr %2, align 8, !tbaa !12
  br label %20

19:                                               ; preds = %14
  br label %20

20:                                               ; preds = %19, %17
  ret void
}

; Function Attrs: nounwind uwtable
define void @deallocAntecedentConsequentVectorsStruct(ptr noundef %0) #0 {
  %2 = alloca ptr, align 8
  store ptr %0, ptr %2, align 8, !tbaa !3
  %3 = load ptr, ptr %2, align 8, !tbaa !3
  %4 = getelementptr inbounds nuw %struct.antecedentConsequentVectorsStruct, ptr %3, i32 0, i32 0
  %5 = load ptr, ptr %4, align 8, !tbaa !8
  %6 = icmp ne ptr %5, null
  br i1 %6, label %7, label %11

7:                                                ; preds = %1
  %8 = load ptr, ptr %2, align 8, !tbaa !3
  %9 = getelementptr inbounds nuw %struct.antecedentConsequentVectorsStruct, ptr %8, i32 0, i32 0
  %10 = load ptr, ptr %9, align 8, !tbaa !8
  call void @Vec_IntFree(ptr noundef %10)
  br label %11

11:                                               ; preds = %7, %1
  %12 = load ptr, ptr %2, align 8, !tbaa !3
  %13 = getelementptr inbounds nuw %struct.antecedentConsequentVectorsStruct, ptr %12, i32 0, i32 1
  %14 = load ptr, ptr %13, align 8, !tbaa !11
  %15 = icmp ne ptr %14, null
  br i1 %15, label %16, label %20

16:                                               ; preds = %11
  %17 = load ptr, ptr %2, align 8, !tbaa !3
  %18 = getelementptr inbounds nuw %struct.antecedentConsequentVectorsStruct, ptr %17, i32 0, i32 1
  %19 = load ptr, ptr %18, align 8, !tbaa !11
  call void @Vec_IntFree(ptr noundef %19)
  br label %20

20:                                               ; preds = %16, %11
  %21 = load ptr, ptr %2, align 8, !tbaa !3
  call void @free(ptr noundef %21) #9
  ret void
}