; Function Attrs: mustprogress nounwind willreturn uwtable
define void @deallocAntecedentConsequentVectorsStruct(ptr noundef captures(none) %0) local_unnamed_addr #3 {
  %2 = load ptr, ptr %0, align 8, !tbaa !3
  %.not = icmp eq ptr %2, null
  br i1 %.not, label %7, label %3

3:                                                ; preds = %1
  %4 = getelementptr inbounds nuw i8, ptr %2, i64 8
  %5 = load ptr, ptr %4, align 8, !tbaa !9
  %.not.i = icmp eq ptr %5, null
  br i1 %.not.i, label %Vec_IntFree.exit, label %6

6:                                                ; preds = %3
  tail call void @free(ptr noundef nonnull %5) #14
  br label %Vec_IntFree.exit

Vec_IntFree.exit:                                 ; preds = %3, %6
  tail call void @free(ptr noundef nonnull %2) #14
  br label %7

7:                                                ; preds = %Vec_IntFree.exit, %1
  %8 = getelementptr inbounds nuw i8, ptr %0, i64 8
  %9 = load ptr, ptr %8, align 8, !tbaa !13
  %.not6 = icmp eq ptr %9, null
  br i1 %.not6, label %14, label %10

10:                                               ; preds = %7
  %11 = getelementptr inbounds nuw i8, ptr %9, i64 8
  %12 = load ptr, ptr %11, align 8, !tbaa !9
  %.not.i7 = icmp eq ptr %12, null
  br i1 %.not.i7, label %Vec_IntFree.exit8, label %13

13:                                               ; preds = %10
  tail call void @free(ptr noundef nonnull %12) #14
  br label %Vec_IntFree.exit8

Vec_IntFree.exit8:                                ; preds = %10, %13
  tail call void @free(ptr noundef nonnull %9) #14
  br label %14

14:                                               ; preds = %Vec_IntFree.exit8, %7
  tail call void @free(ptr noundef nonnull %0) #14
  ret void
}